target datalayout = "e-m:e-p270:32:32-p271:32:32-p272:64:64-i64:64-i128:128-f80:128-n8:16:32:64-S128"
target triple = "x86_64-pc-linux-gnu"

%"struct.vcpkg::MessageLine" = type { %"class.std::vector" }
%"class.std::vector" = type { %"struct.std::_Vector_base" }
%"struct.std::_Vector_base" = type { %"struct.std::_Vector_base<vcpkg::MessageLineSegment, std::allocator<vcpkg::MessageLineSegment>>::_Vector_impl" }
%"struct.std::_Vector_base<vcpkg::MessageLineSegment, std::allocator<vcpkg::MessageLineSegment>>::_Vector_impl" = type { %"struct.std::_Vector_base<vcpkg::MessageLineSegment, std::allocator<vcpkg::MessageLineSegment>>::_Vector_impl_data" }
%"struct.std::_Vector_base<vcpkg::MessageLineSegment, std::allocator<vcpkg::MessageLineSegment>>::_Vector_impl_data" = type { ptr, ptr, ptr }
%"struct.vcpkg::PrintingDiagnosticContext" = type { %"struct.vcpkg::DiagnosticContext", ptr }
%"struct.vcpkg::DiagnosticContext" = type { ptr }

; Function Attrs: mustprogress uwtable
define dso_local void @_ZNK5vcpkg14DiagnosticLine8print_toERNS_11MessageSinkE(ptr noundef nonnull align 8 dereferenceable(88) %0, ptr noundef nonnull align 8 dereferenceable(8) %1) #0 align 2 personality ptr @__gxx_personality_v0 {
  %3 = alloca ptr, align 8
  %4 = alloca ptr, align 8
  %5 = alloca %"struct.vcpkg::MessageLine", align 8
  %6 = alloca ptr, align 8
  %7 = alloca i32, align 4
  store ptr %0, ptr %3, align 8, !tbaa !9
  store ptr %1, ptr %4, align 8, !tbaa !34
  %8 = load ptr, ptr %3, align 8
  %9 = load ptr, ptr %4, align 8, !tbaa !34
  call void @llvm.lifetime.start.p0(i64 24, ptr %5) #20
  call void @_ZNK5vcpkg14DiagnosticLine15to_message_lineEv(ptr dead_on_unwind writable sret(%"struct.vcpkg::MessageLine") align 8 %5, ptr noundef nonnull align 8 dereferenceable(88) %8)
  %10 = load ptr, ptr %9, align 8, !tbaa !11
  %11 = getelementptr inbounds ptr, ptr %10, i64 1
  %12 = load ptr, ptr %11, align 8
  invoke void %12(ptr noundef nonnull align 8 dereferenceable(8) %9, ptr noundef nonnull align 8 dereferenceable(24) %5)
          to label %13 unwind label %14

13:                                               ; preds = %2
  call void @_ZN5vcpkg11MessageLineD2Ev(ptr noundef nonnull align 8 dereferenceable(24) %5) #20
  call void @llvm.lifetime.end.p0(i64 24, ptr %5) #20
  ret void

14:                                               ; preds = %2
  %15 = landingpad { ptr, i32 }
          cleanup
  %16 = extractvalue { ptr, i32 } %15, 0
  store ptr %16, ptr %6, align 8
  %17 = extractvalue { ptr, i32 } %15, 1
  store i32 %17, ptr %7, align 4
  call void @_ZN5vcpkg11MessageLineD2Ev(ptr noundef nonnull align 8 dereferenceable(24) %5) #20
  call void @llvm.lifetime.end.p0(i64 24, ptr %5) #20
  br label %18

18:                                               ; preds = %14
  %19 = load ptr, ptr %6, align 8
  %20 = load i32, ptr %7, align 4
  %21 = insertvalue { ptr, i32 } poison, ptr %19, 0
  %22 = insertvalue { ptr, i32 } %21, i32 %20, 1
  resume { ptr, i32 } %22
}

; Function Attrs: mustprogress uwtable
define dso_local void @_ZN5vcpkg25PrintingDiagnosticContext6reportERKNS_14DiagnosticLineE(ptr noundef nonnull align 8 dereferenceable(16) %0, ptr noundef nonnull align 8 dereferenceable(88) %1) unnamed_addr #0 align 2 {
  %3 = alloca ptr, align 8
  %4 = alloca ptr, align 8
  store ptr %0, ptr %3, align 8, !tbaa !72
  store ptr %1, ptr %4, align 8, !tbaa !9
  %5 = load ptr, ptr %3, align 8
  %6 = load ptr, ptr %4, align 8, !tbaa !9
  %7 = getelementptr inbounds nuw %"struct.vcpkg::PrintingDiagnosticContext", ptr %5, i32 0, i32 1
  %8 = load ptr, ptr %7, align 8, !tbaa !74
  call void @_ZNK5vcpkg14DiagnosticLine8print_toERNS_11MessageSinkE(ptr noundef nonnull align 8 dereferenceable(88) %6, ptr noundef nonnull align 8 dereferenceable(8) %8)
  ret void
}