; Function Attrs: mustprogress uwtable
define dso_local void @_ZN5vcpkg25PrintingDiagnosticContext6reportERKNS_14DiagnosticLineE(ptr noundef nonnull readonly align 8 captures(none) dereferenceable(16) %0, ptr noundef nonnull align 8 dereferenceable(88) %1) unnamed_addr #0 align 2 personality ptr @__gxx_personality_v0 {
  %3 = alloca %"struct.vcpkg::MessageLine", align 8
  %4 = getelementptr inbounds nuw i8, ptr %0, i64 8
  %5 = load ptr, ptr %4, align 8, !tbaa !57
  call void @llvm.lifetime.start.p0(i64 24, ptr nonnull %3) #26
  call void @_ZNK5vcpkg14DiagnosticLine15to_message_lineEv(ptr dead_on_unwind nonnull writable sret(%"struct.vcpkg::MessageLine") align 8 %3, ptr noundef nonnull align 8 dereferenceable(88) %1)
  %6 = load ptr, ptr %5, align 8, !tbaa !4
  %7 = getelementptr inbounds nuw i8, ptr %6, i64 8
  %8 = load ptr, ptr %7, align 8
  invoke void %8(ptr noundef nonnull align 8 dereferenceable(8) %5, ptr noundef nonnull align 8 dereferenceable(24) %3)
          to label %9 unwind label %30

9:                                                ; preds = %2
  %10 = load ptr, ptr %3, align 8, !tbaa !42
  %11 = getelementptr inbounds nuw i8, ptr %3, i64 8
  %12 = load ptr, ptr %11, align 8, !tbaa !45
  %.not4.i.i.i.i.i.i = icmp eq ptr %10, %12
  br i1 %.not4.i.i.i.i.i.i, label %_ZSt8_DestroyIPN5vcpkg18MessageLineSegmentES1_EvT_S3_RSaIT0_E.exit.i.i.i, label %.lr.ph.i.i.i.i.i.i

.lr.ph.i.i.i.i.i.i:                               ; preds = %9, %_ZSt8_DestroyIN5vcpkg18MessageLineSegmentEEvPT_.exit.i.i.i.i.i.i
  %.05.i.i.i.i.i.i = phi ptr [ %22, %_ZSt8_DestroyIN5vcpkg18MessageLineSegmentEEvPT_.exit.i.i.i.i.i.i ], [ %10, %9 ]
  %13 = getelementptr inbounds nuw i8, ptr %.05.i.i.i.i.i.i, i64 8
  %14 = load ptr, ptr %13, align 8, !tbaa !12
  %15 = getelementptr inbounds nuw i8, ptr %.05.i.i.i.i.i.i, i64 24
  %16 = icmp eq ptr %14, %15
  br i1 %16, label %_ZNKSt7__cxx1112basic_stringIcSt11char_traitsIcESaIcEE11_M_is_localEv.exit.thread.i.i.i.i.i.i.i.i.i.i, label %_ZNKSt7__cxx1112basic_stringIcSt11char_traitsIcESaIcEE11_M_is_localEv.exit.i.i.i.i.i.i.i.i.i.i

_ZNKSt7__cxx1112basic_stringIcSt11char_traitsIcESaIcEE11_M_is_localEv.exit.thread.i.i.i.i.i.i.i.i.i.i: ; preds = %.lr.ph.i.i.i.i.i.i
  %17 = getelementptr inbounds nuw i8, ptr %.05.i.i.i.i.i.i, i64 16
  %18 = load i64, ptr %17, align 8, !tbaa !17
  %19 = icmp ult i64 %18, 16
  call void @llvm.assume(i1 %19)
  br label %_ZSt8_DestroyIN5vcpkg18MessageLineSegmentEEvPT_.exit.i.i.i.i.i.i

_ZNKSt7__cxx1112basic_stringIcSt11char_traitsIcESaIcEE11_M_is_localEv.exit.i.i.i.i.i.i.i.i.i.i: ; preds = %.lr.ph.i.i.i.i.i.i
  %20 = load i64, ptr %15, align 8, !tbaa !18
  %21 = add i64 %20, 1
  call void @_ZdlPvm(ptr noundef %14, i64 noundef %21) #28
  br label %_ZSt8_DestroyIN5vcpkg18MessageLineSegmentEEvPT_.exit.i.i.i.i.i.i

_ZSt8_DestroyIN5vcpkg18MessageLineSegmentEEvPT_.exit.i.i.i.i.i.i: ; preds = %_ZNKSt7__cxx1112basic_stringIcSt11char_traitsIcESaIcEE11_M_is_localEv.exit.i.i.i.i.i.i.i.i.i.i, %_ZNKSt7__cxx1112basic_stringIcSt11char_traitsIcESaIcEE11_M_is_localEv.exit.thread.i.i.i.i.i.i.i.i.i.i
  %22 = getelementptr inbounds nuw i8, ptr %.05.i.i.i.i.i.i, i64 40
  %.not.i.i.i.i.i.i = icmp eq ptr %22, %12
  br i1 %.not.i.i.i.i.i.i, label %_ZSt8_DestroyIPN5vcpkg18MessageLineSegmentES1_EvT_S3_RSaIT0_E.exitthread-pre-split.i.i.i, label %.lr.ph.i.i.i.i.i.i, !llvm.loop !46

_ZSt8_DestroyIPN5vcpkg18MessageLineSegmentES1_EvT_S3_RSaIT0_E.exitthread-pre-split.i.i.i: ; preds = %_ZSt8_DestroyIN5vcpkg18MessageLineSegmentEEvPT_.exit.i.i.i.i.i.i
  %.pr.i.i.i = load ptr, ptr %3, align 8, !tbaa !42
  br label %_ZSt8_DestroyIPN5vcpkg18MessageLineSegmentES1_EvT_S3_RSaIT0_E.exit.i.i.i

_ZSt8_DestroyIPN5vcpkg18MessageLineSegmentES1_EvT_S3_RSaIT0_E.exit.i.i.i: ; preds = %_ZSt8_DestroyIPN5vcpkg18MessageLineSegmentES1_EvT_S3_RSaIT0_E.exitthread-pre-split.i.i.i, %9
  %23 = phi ptr [ %.pr.i.i.i, %_ZSt8_DestroyIPN5vcpkg18MessageLineSegmentES1_EvT_S3_RSaIT0_E.exitthread-pre-split.i.i.i ], [ %10, %9 ]
  %.not.i.i.i.i.i = icmp eq ptr %23, null
  br i1 %.not.i.i.i.i.i, label %_ZNK5vcpkg14DiagnosticLine8print_toERNS_11MessageSinkE.exit, label %24

24:                                               ; preds = %_ZSt8_DestroyIPN5vcpkg18MessageLineSegmentES1_EvT_S3_RSaIT0_E.exit.i.i.i
  %25 = getelementptr inbounds nuw i8, ptr %3, i64 16
  %26 = load ptr, ptr %25, align 8, !tbaa !48
  %27 = ptrtoint ptr %26 to i64
  %28 = ptrtoint ptr %23 to i64
  %29 = sub i64 %27, %28
  call void @_ZdlPvm(ptr noundef nonnull %23, i64 noundef %29) #28
  br label %_ZNK5vcpkg14DiagnosticLine8print_toERNS_11MessageSinkE.exit

30:                                               ; preds = %2
  %31 = landingpad { ptr, i32 }
          cleanup
  call void @_ZN5vcpkg11MessageLineD2Ev(ptr noundef nonnull align 8 dereferenceable(24) %3) #26
  call void @llvm.lifetime.end.p0(i64 24, ptr nonnull %3) #26
  resume { ptr, i32 } %31

_ZNK5vcpkg14DiagnosticLine8print_toERNS_11MessageSinkE.exit: ; preds = %_ZSt8_DestroyIPN5vcpkg18MessageLineSegmentES1_EvT_S3_RSaIT0_E.exit.i.i.i, %24
  call void @llvm.lifetime.end.p0(i64 24, ptr nonnull %3) #26
  ret void
}